Certificate:
    Data:
        Version: 3 (0x2)
        Serial Number: 11240779440452688558 (0x9bff45584ab25aae)
    Signature Algorithm: sha256WithRSAEncryption
        Issuer: CN=sonar.ch
        Validity
            Not Before: Jul  2 13:27:23 2019 GMT
            Not After : Jul  2 13:27:23 2022 GMT
        Subject: CN=sonar.ch
        Subject Public Key Info:
            Public Key Algorithm: rsaEncryption
                Public-Key: (3072 bit)
                Modulus:
                    00:a3:44:76:cd:9e:5e:51:64:1f:11:ee:fe:a3:0f:
                    19:c8:c7:e6:e9:c1:ec:58:a9:cb:b0:45:42:d7:b3:
                    78:f8:6f:23:0f:ab:23:7c:cd:71:14:80:b4:55:0b:
                    dd:a4:6a:d3:39:a9:bc:95:bd:d9:d5:aa:4c:25:24:
                    6b:3e:d4:2a:e8:61:e3:c2:55:a0:e0:7d:fd:b7:40:
                    9f:94:4e:52:f1:2d:09:3d:c8:32:4c:f1:7b:d9:5d:
                    c2:ed:23:a1:a9:f0:57:da:e5:a2:65:87:bf:89:1e:
                    44:c7:2b:dc:6f:b7:3c:27:f2:df:85:f3:c9:7b:e7:
                    75:2d:ef:85:2e:3c:97:35:17:5a:39:3c:ab:27:b5:
                    aa:38:7c:7c:88:48:b3:91:e0:fb:88:f0:fe:e0:64:
                    16:53:c5:28:fc:b3:a5:9f:70:ed:cd:9e:af:a4:fe:
                    cb:9e:52:57:53:f0:ca:3a:b5:f3:05:bc:13:e6:e1:
                    d5:1c:9d:52:74:55:92:60:ad:13:86:af:e6:21:90:
                    50:f2:78:57:c2:49:94:dd:1c:12:15:fc:ae:52:c3:
                    15:5f:a3:09:f3:79:95:eb:6c:eb:03:a0:60:bd:65:
                    86:32:7b:77:ac:3c:c8:ad:ce:2f:7a:14:07:96:58:
                    8f:d5:75:28:44:d1:f2:42:4f:84:ea:7d:32:ad:cc:
                    ff:f7:8e:1a:20:ba:01:e5:2f:b5:7c:66:16:4b:82:
                    27:80:c3:8a:81:5f:cc:f1:d2:54:c4:00:8c:14:80:
                    d9:2e:5b:9c:4a:e7:6f:fb:61:7e:30:ea:25:89:0b:
                    c5:5c:6c:b6:4e:62:c7:f7:bd:5d:33:d8:2c:a0:e9:
                    4f:e4:6a:ad:bc:56:ac:f3:b6:de:c6:99:9d:ad:4d:
                    75:d6:fd:ea:38:a2:c3:c0:16:72:8a:ed:08:ae:4a:
                    56:ac:2b:51:a1:05:ef:e1:16:57:0c:ce:de:6c:6e:
                    b4:ce:d2:fe:40:d3:18:10:86:4c:4c:79:84:4a:7d:
                    f8:d0:03:75:53:67:b3:af:39:f3
                Exponent: 65537 (0x10001)
        X509v3 extensions:
            X509v3 Subject Alternative Name: 
                DNS:sonar.ch, URI:https://sonar.ch/shibboleth
            X509v3 Subject Key Identifier: 
                4D:BA:B6:DD:18:94:97:53:4F:5B:C9:D0:35:62:A0:1C:17:09:2A:A5
    Signature Algorithm: sha256WithRSAEncryption
         2e:03:5c:27:12:e9:31:e3:ad:75:8c:18:fb:c2:c5:7f:67:52:
         fc:98:e3:59:90:fa:ce:50:4e:ff:0f:5e:0b:4d:e0:fd:b7:19:
         e7:15:e7:fa:b4:c5:43:f9:73:57:fa:6e:96:9b:d6:39:a0:ab:
         03:ac:70:42:d8:d7:31:de:00:fc:5a:0b:6f:7e:30:14:3e:91:
         e4:70:f5:ca:2c:1e:4c:e7:1d:51:2e:bf:ff:cb:66:dc:a2:e8:
         3f:e1:bc:e1:7c:58:32:62:c9:83:53:b1:ba:01:5d:62:18:ba:
         e0:a7:c8:d0:97:70:06:66:b5:68:e9:76:eb:83:04:f2:03:1a:
         c1:92:ee:a9:40:4e:73:c2:20:15:03:75:97:ef:1f:cc:e3:58:
         ee:04:59:36:fa:48:d9:e2:9a:67:5d:f1:99:8d:78:6d:5c:29:
         af:f0:27:fc:63:78:ca:20:13:3e:30:c2:9d:5b:94:73:9d:ec:
         f5:17:8c:4c:16:d3:c1:24:6a:0c:78:82:61:d4:ba:1e:88:7c:
         89:5f:35:b8:2a:3e:73:48:ea:ec:cb:a1:af:8f:0e:b8:72:6d:
         09:8d:15:29:82:ec:23:74:1a:31:41:43:f7:5e:e6:ec:ea:ad:
         4c:99:f5:44:07:0a:9d:a3:17:da:c7:9f:38:2e:90:c7:0b:fe:
         4d:74:ef:33:d4:a2:2e:d1:cb:d7:cb:e4:54:3e:cc:f9:63:9f:
         f0:29:25:c5:50:f7:31:44:24:ff:73:fe:c9:8b:3e:01:6a:08:
         cd:d1:80:81:90:b4:09:30:a9:34:be:77:2d:81:69:b3:7b:3e:
         e8:0a:85:76:c4:fa:53:cb:3d:d0:f5:89:a3:de:88:81:9b:cb:
         1d:da:bb:5f:93:e1:34:7c:10:f4:a8:f7:6f:2f:31:22:c0:d8:
         bd:5a:67:c0:5e:31:04:ba:5b:07:08:38:9e:53:fc:f4:6b:bd:
         94:64:26:cc:02:c8:ed:d4:a6:d8:0c:96:4a:f0:46:a1:c3:be:
         9c:be:bb:2c:08:a6
-----BEGIN CERTIFICATE-----
MIID/DCCAmSgAwIBAgIJAJv/RVhKslquMA0GCSqGSIb3DQEBCwUAMBMxETAPBgNV
BAMTCHNvbmFyLmNoMB4XDTE5MDcwMjEzMjcyM1oXDTIyMDcwMjEzMjcyM1owEzER
MA8GA1UEAxMIc29uYXIuY2gwggGiMA0GCSqGSIb3DQEBAQUAA4IBjwAwggGKAoIB
gQCjRHbNnl5RZB8R7v6jDxnIx+bpwexYqcuwRULXs3j4byMPqyN8zXEUgLRVC92k
atM5qbyVvdnVqkwlJGs+1CroYePCVaDgff23QJ+UTlLxLQk9yDJM8XvZXcLtI6Gp
8Ffa5aJlh7+JHkTHK9xvtzwn8t+F88l753Ut74UuPJc1F1o5PKsntao4fHyISLOR
4PuI8P7gZBZTxSj8s6WfcO3Nnq+k/sueUldT8Mo6tfMFvBPm4dUcnVJ0VZJgrROG
r+YhkFDyeFfCSZTdHBIV/K5SwxVfownzeZXrbOsDoGC9ZYYye3esPMitzi96FAeW
WI/VdShE0fJCT4TqfTKtzP/3jhogugHlL7V8ZhZLgieAw4qBX8zx0lTEAIwUgNku
W5xK52/7YX4w6iWJC8VcbLZOYsf3vV0z2Cyg6U/kaq28Vqzztt7GmZ2tTXXW/eo4
osPAFnKK7QiuSlasK1GhBe/hFlcMzt5sbrTO0v5A0xgQhkxMeYRKffjQA3VTZ7Ov
OfMCAwEAAaNTMFEwMAYDVR0RBCkwJ4IIc29uYXIuY2iGG2h0dHBzOi8vc29uYXIu
Y2gvc2hpYmJvbGV0aDAdBgNVHQ4EFgQUTbq23RiUl1NPW8nQNWKgHBcJKqUwDQYJ
KoZIhvcNAQELBQADggGBAC4DXCcS6THjrXWMGPvCxX9nUvyY41mQ+s5QTv8PXgtN
4P23GecV5/q0xUP5c1f6bpab1jmgqwOscELY1zHeAPxaC29+MBQ+keRw9cosHkzn
HVEuv//LZtyi6D/hvOF8WDJiyYNTsboBXWIYuuCnyNCXcAZmtWjpduuDBPIDGsGS
7qlATnPCIBUDdZfvH8zjWO4EWTb6SNnimmdd8ZmNeG1cKa/wJ/xjeMogEz4wwp1b
lHOd7PUXjEwW08Ekagx4gmHUuh6IfIlfNbgqPnNI6uzLoa+PDrhybQmNFSmC7CN0
GjFBQ/de5uzqrUyZ9UQHCp2jF9rHnzgukMcL/k107zPUoi7Ry9fL5FQ+zPljn/Ap
JcVQ9zFEJP9z/smLPgFqCM3RgIGQtAkwqTS+dy2BabN7PugKhXbE+lPLPdD1iaPe
iIGbyx3au1+T4TR8EPSo928vMSLA2L1aZ8BeMQS6WwcIOJ5T/PRrvZRkJswCyO3U
ptgMlkrwRqHDvpy+uywIpg==
-----END CERTIFICATE-----
